Certificate:
    Data:
        Version: 1 (0x0)
        Serial Number:
            98:d3:1e:ff:b7:7c:bd:39
    Signature Algorithm: sha256WithRSAEncryption
        Issuer: CN=localhost
        Validity
            Not Before: Mar 13 00:21:45 2026 GMT
            Not After : Mar 10 00:21:45 2036 GMT
        Subject: CN=localhost
        Subject Public Key Info:
            Public Key Algorithm: rsaEncryption
                RSA Public-Key: (2048 bit)
                Modulus:
                    00:f7:23:dd:d3:1c:84:15:f2:6d:8a:4c:c5:24:90:
                    63:b2:e7:ea:e5:7c:ef:ae:54:a7:04:61:cf:2e:31:
                    37:d6:43:d7:81:0b:56:59:ec:78:f6:0f:14:0a:14:
                    9f:7e:e7:b5:3b:2e:3f:3e:c6:30:84:29:11:f2:a9:
                    d2:6c:fe:07:2a:71:6c:8e:b7:83:fc:2c:c7:30:89:
                    40:45:ec:97:28:cf:72:30:4b:45:2d:c6:7a:62:61:
                    0e:35:b7:68:e6:ba:81:9c:7d:94:a8:e6:32:6a:ca:
                    11:92:3b:7f:00:07:96:27:f1:93:e7:a1:de:1e:03:
                    33:a3:31:52:55:aa:b0:56:38:2a:d9:52:e8:5c:ab:
                    b3:07:de:a9:79:38:33:44:13:c7:ae:1b:63:bd:b3:
                    e2:f5:bf:af:b3:14:00:06:0c:3a:79:ac:d5:9b:e6:
                    d5:54:4f:96:8c:00:d3:c7:fd:de:38:f6:c3:70:a9:
                    7e:f2:98:09:d7:53:1e:93:05:d0:16:1d:c7:f1:11:
                    36:fc:a7:29:07:b0:3f:4f:c8:f2:d3:a0:88:61:46:
                    a4:5d:e0:ad:26:3f:64:d6:a7:fc:8b:bf:bd:0e:3d:
                    d5:85:64:d8:4a:ab:30:e3:fa:9b:be:cf:69:24:c9:
                    ce:0d:59:4d:cb:61:c1:99:81:8f:bc:33:1f:88:e5:
                    df:e9
                Exponent: 65537 (0x10001)
    Signature Algorithm: sha256WithRSAEncryption
         c9:77:86:5e:75:77:5b:72:85:f7:0b:29:32:c5:a9:af:67:f3:
         b0:9c:a8:a3:f2:e6:b5:e7:f8:31:5b:f3:d4:42:22:56:16:1f:
         e3:33:d1:7e:8b:d9:f2:ce:87:c2:16:f0:e9:8c:1e:8b:95:21:
         d3:65:8b:8d:ca:3e:34:61:81:b9:fa:df:21:55:d4:25:55:ec:
         5c:12:35:ad:b7:b1:a9:52:c3:d8:63:aa:da:89:e7:27:e3:95:
         b9:40:50:bd:94:41:c0:94:43:26:34:53:52:c8:4c:b3:1a:bc:
         c5:ea:53:a2:9d:24:7d:cf:4a:19:25:38:fa:99:4d:5a:7a:13:
         89:2d:9c:c5:2a:8e:04:a0:64:04:02:ef:75:a6:42:9a:3c:72:
         87:a3:10:10:b3:1e:2b:e4:41:1f:23:69:bd:17:5d:92:c4:d3:
         e7:a5:6a:09:f6:ed:b2:b5:0d:f4:72:47:d1:49:1e:d1:26:79:
         a2:40:7a:66:cf:36:51:d2:53:9f:63:d4:cb:d9:2e:de:5d:91:
         1c:06:04:c4:51:94:1a:63:01:76:1f:ae:af:3b:5d:b2:fb:8c:
         87:20:2b:d1:37:a2:95:37:63:b9:d1:f5:1e:44:bd:2a:6c:7e:
         f8:d0:67:06:c2:19:ab:0b:8c:78:04:f6:73:78:fa:6d:6a:97:
         10:a0:d7:2e
-----BEGIN CERTIFICATE-----
MIICpDCCAYwCCQCY0x7/t3y9OTANBgkqhkiG9w0BAQsFADAUMRIwEAYDVQQDDAls
b2NhbGhvc3QwHhcNMjYwMzEzMDAyMTQ1WhcNMzYwMzEwMDAyMTQ1WjAUMRIwEAYD
VQQDDAlsb2NhbGhvc3QwggEiMA0GCSqGSIb3DQEBAQUAA4IBDwAwggEKAoIBAQD3
I93THIQV8m2KTMUkkGOy5+rlfO+uVKcEYc8uMTfWQ9eBC1ZZ7Hj2DxQKFJ9+57U7
Lj8+xjCEKRHyqdJs/gcqcWyOt4P8LMcwiUBF7Jcoz3IwS0UtxnpiYQ41t2jmuoGc
fZSo5jJqyhGSO38AB5Yn8ZPnod4eAzOjMVJVqrBWOCrZUuhcq7MH3ql5ODNEE8eu
G2O9s+L1v6+zFAAGDDp5rNWb5tVUT5aMANPH/d449sNwqX7ymAnXUx6TBdAWHcfx
ETb8pykHsD9PyPLToIhhRqRd4K0mP2TWp/yLv70OPdWFZNhKqzDj+pu+z2kkyc4N
WU3LYcGZgY+8Mx+I5d/pAgMBAAEwDQYJKoZIhvcNAQELBQADggEBAMl3hl51d1ty
hfcLKTLFqa9n87CcqKPy5rXn+DFb89RCIlYWH+Mz0X6L2fLOh8IW8OmMHouVIdNl
i43KPjRhgbn63yFV1CVV7FwSNa23salSw9hjqtqJ5yfjlblAUL2UQcCUQyY0U1LI
TLMavMXqU6KdJH3PShklOPqZTVp6E4ktnMUqjgSgZAQC73WmQpo8coejEBCzHivk
QR8jab0XXZLE0+elagn27bK1DfRyR9FJHtEmeaJAembPNlHSU59j1MvZLt5dkRwG
BMRRlBpjAXYfrq87XbL7jIcgK9E3opU3Y7nR9R5EvSpsfvjQZwbCGasLjHgE9nN4
+m1qlxCg1y4=
-----END CERTIFICATE-----
